(lp0
(lp1
S'661100'
p2
aS'ADAM'
p3
aS'MITE'
p4
aS'200'
p5
aS'2019-03-02'
p6
aa(lp7
S'334710'
p8
aS'DMITRI'
p9
aS'NADAM'
p10
aI60
aS'2020-8-19'
p11
aa(lp12
S'123912'
p13
aS'HABIBI'
p14
aS'JAB'
p15
aS'500'
p16
aS'2019-03-02'
p17
aa(lp18
S'234561'
p19
aS'HASAN'
p20
aS'SATTAROV'
p21
aS'20'
p22
aS'2019-03-02'
p23
aa(lp24
S'123456'
p25
aS'HUSAN'
p26
aS'SATTAROV'
p27
aS'50'
p28
aS'2019-03-02'
p29
aa(lp30
S'920194'
p31
aS'MICHAEL'
p32
aS'JOR'
p33
aS'100'
p34
aS'2019-03-02'
p35
aa.