(dp0
S'234561'
p1
(lp2
g1
aS'HASAN'
p3
aS'SATTAROV'
p4
aS'20'
p5
aS'2019-03-02'
p6
asS'334710'
p7
(lp8
g7
aS'DMITRI'
p9
aS'NADAM'
p10
aI60
aS'2020-8-19'
p11
asS'920194'
p12
(lp13
g12
aS'MICHAEL'
p14
aS'JOR'
p15
aS'100'
p16
aS'2019-03-02'
p17
asS'123456'
p18
(lp19
g18
aS'HUSAN'
p20
aS'SATTAROV'
p21
aS'50'
p22
aS'2019-03-02'
p23
asS'661100'
p24
(lp25
g24
aS'ADAM'
p26
aS'MITE'
p27
aS'200'
p28
aS'2019-03-02'
p29
asS'123912'
p30
(lp31
g30
aS'HABIBI'
p32
aS'JAB'
p33
aS'500'
p34
aS'2019-03-02'
p35
as.