(lp0
(lp1
S'ADAMMITE'
p2
aS'661100'
p3
aa(lp4
S'DMITRINADAM'
p5
aS'334710'
p6
aa(lp7
S'HABIBIJAB'
p8
aS'123912'
p9
aa(lp10
S'HASANSATTAROV'
p11
aS'234561'
p12
aa(lp13
S'HUSANSATTAROV'
p14
aS'123456'
p15
aa(lp16
S'MICHAELJOR'
p17
aS'920194'
p18
aa.